Certificate:
    Data:
        Version: 3 (0x2)
        Serial Number: 21686 (0x54b6)
    Signature Algorithm: sha1WithRSAEncryption
        Issuer: C=DE, ST=Berlin, O=Zalando AG, OU=Platform/System Engineering, CN=Zalando Technology rootCA/emailAddress=domain@zalando.de
        Validity
            Not Before: May 23 14:39:10 2014 GMT
            Not After : May 20 14:39:10 2024 GMT
        Subject: C=DE, ST=Berlin, O=Zalando AG, OU=Platform/System Engineering, CN=Zalando Technology serviceCA/emailAddress=domain@zalando.de
        Subject Public Key Info:
            Public Key Algorithm: rsaEncryption
                Public-Key: (4096 bit)
                Modulus:
                    00:b4:39:f7:b0:d0:42:3d:00:56:e2:2d:b8:de:0a:
                    29:64:cc:b1:14:78:34:11:8b:9e:6d:c7:e7:c4:98:
                    60:2f:a0:70:e6:b7:2d:9f:64:23:60:65:65:d8:28:
                    1a:16:a6:15:a6:f4:d1:b7:16:2b:62:60:d3:d3:0f:
                    37:21:6d:4e:d9:37:14:87:19:6f:46:c4:ed:f8:20:
                    06:fb:6e:3c:c1:ef:4b:2c:f1:ef:c2:f9:6c:13:59:
                    93:ad:4d:e3:2d:12:1f:5c:9c:7b:e3:7b:52:96:81:
                    16:3e:c2:36:25:d2:14:85:6e:07:12:3c:3f:00:b0:
                    b9:09:98:a2:e1:30:fb:53:46:b1:ad:9f:df:3e:d6:
                    d5:5f:a5:9c:bc:7b:80:b4:6d:17:e0:26:29:b4:3a:
                    46:8a:77:47:19:12:98:4c:29:a0:ee:8b:2e:b2:37:
                    fe:88:93:6a:3b:75:ff:98:f9:80:27:42:6c:98:da:
                    28:7e:cf:1c:fb:73:e1:d9:c4:e6:38:bf:03:ba:f3:
                    fa:ff:d0:2c:6e:5b:a3:1a:84:c2:67:9f:c4:f3:c5:
                    65:87:55:3e:06:43:d0:77:61:8a:11:28:8a:18:2c:
                    f0:db:a2:e6:67:54:13:07:bb:9a:79:84:a4:15:89:
                    5b:7c:14:71:97:7e:ba:bf:18:bd:4d:60:8f:c2:3d:
                    1b:48:80:99:c7:20:89:ea:6b:a5:ac:73:a6:29:24:
                    30:63:de:a7:07:93:0b:93:d6:b9:9d:15:8d:c6:02:
                    e0:3f:47:61:21:d1:d7:29:5a:7f:79:0d:2c:d3:23:
                    4a:f0:4b:4e:0d:79:b6:ed:5f:b7:f4:be:1b:7d:fa:
                    10:f4:88:bc:63:ff:f9:32:ec:a6:77:97:18:f9:2f:
                    07:73:d3:b6:9f:e6:38:56:8e:05:14:ac:0c:76:9c:
                    d2:dd:cb:d4:f8:90:53:10:23:b3:a1:60:2c:47:f8:
                    a1:82:6e:f3:56:6a:9d:35:3e:ba:55:b4:29:80:fd:
                    30:09:21:34:e2:2a:ce:92:3b:7b:ea:6f:fd:dc:8a:
                    60:e9:ea:4b:6c:a8:e9:6f:ee:7e:3c:37:dd:71:34:
                    81:13:63:ea:2e:6c:38:0b:27:e9:c8:03:d2:42:c3:
                    84:c0:19:e7:ed:aa:2d:e3:20:09:be:44:f3:b9:92:
                    9c:48:15:7e:3c:17:85:53:98:24:3a:67:3d:86:ea:
                    94:49:e0:af:7c:95:c8:a6:cf:84:63:24:d9:3b:12:
                    24:a6:8c:5d:a3:89:5b:83:95:7e:dc:af:bc:4e:29:
                    68:f4:47:d1:2d:75:ad:f8:bb:05:45:1e:72:82:73:
                    c4:1c:b0:cd:9f:3d:35:68:b9:40:26:0d:9a:de:ba:
                    e4:b0:a5
                Exponent: 65537 (0x10001)
        X509v3 extensions:
            X509v3 Subject Key Identifier: 
                8C:27:BE:0C:C7:4B:B6:74:8C:EF:C2:7D:80:07:AD:B6:CC:C9:85:40
            X509v3 Authority Key Identifier: 
                keyid:81:9B:3C:5C:0C:42:CA:33:10:D1:EE:D7:7D:93:EE:37:52:9E:69:D2

            X509v3 Basic Constraints: critical
                CA:TRUE, pathlen:0
            Netscape Comment: 
                ..
    Signature Algorithm: sha1WithRSAEncryption
         91:7f:c3:0c:6a:f3:19:40:d6:9c:b3:6d:c8:b4:f7:17:ad:bf:
         5e:c4:7c:04:33:77:b1:e9:6f:d1:9a:d5:c5:20:30:9f:5b:8e:
         a7:0a:00:42:66:db:22:d3:1b:5e:94:46:3d:a2:e0:a3:f0:f9:
         1d:e1:73:30:ef:8c:79:09:df:95:18:0d:13:b3:29:77:65:cd:
         61:7f:0e:13:12:15:f4:f9:4e:96:11:c8:f1:2e:e9:af:5a:af:
         a2:3e:cf:db:c5:a0:30:d2:a9:4b:4e:05:be:7f:11:64:91:22:
         56:5d:d5:ed:9c:6f:8f:fd:cc:28:b2:5a:f9:33:93:71:32:54:
         95:00:40:ff:7a:6a:70:51:62:01:fe:5a:bf:49:99:f8:19:8e:
         47:6c:02:0a:ab:db:f3:4c:d5:85:c3:ba:7b:52:93:70:fb:8a:
         61:80:cc:9f:a2:af:f4:d1:2a:fa:32:1d:57:f5:da:2b:f7:33:
         11:4e:66:e7:aa:30:db:9e:2d:44:4e:ba:99:a2:a0:9c:ce:df:
         83:30:80:67:ec:1a:f2:93:f6:da:57:e5:eb:b2:f5:c7:b3:74:
         da:58:2e:0d:76:a6:9e:2e:74:a9:d8:af:44:b3:3d:1d:cd:e0:
         b1:cd:88:ff:6f:48:12:88:2f:e9:5e:7d:ba:1c:4c:e1:c6:66:
         f8:4f:a7:ca:a7:1d:15:f5:3e:36:c8:3b:d6:c4:bd:87:af:ff:
         c6:5e:26:a9:f4:ce:d6:a2:d9:60:2c:84:eb:5e:35:e1:53:ef:
         32:2e:c1:16:de:b8:ce:d2:f2:26:dd:6c:16:2a:45:de:68:35:
         bb:0c:ad:48:7a:51:e7:5f:60:e6:71:08:f4:49:c6:89:e8:5d:
         64:5b:d7:7e:79:58:c1:56:13:39:65:80:e4:3f:de:ee:c2:f2:
         04:e6:26:6c:f5:55:4a:9d:cf:2e:75:a6:45:6b:9a:73:61:cf:
         85:46:e7:85:8c:eb:99:5d:b9:22:7a:e0:16:e9:e6:ee:be:17:
         58:0f:34:97:83:48:1d:fe:05:47:2f:a3:26:2c:ed:bc:c5:06:
         79:d1:d3:04:57:02:dc:b2:e7:25:1b:5a:99:b7:3f:67:19:bf:
         49:ad:cf:51:ff:08:f1:6b:29:78:39:60:e7:dc:9c:cf:ab:50:
         ad:3b:0c:23:20:99:6d:81:47:b5:fa:2b:60:e2:c0:20:49:92:
         4f:e8:69:86:a6:07:07:96:77:12:2a:ff:7d:45:f9:c6:de:ad:
         12:f2:1a:d2:3b:d3:38:67:37:34:04:e9:3c:45:27:9a:45:7f:
         a4:b5:eb:b1:f3:e5:fa:c5:49:1d:fa:05:4a:7b:c2:ba:55:6e:
         37:9d:14:8b:76:08:c4:c5
-----BEGIN CERTIFICATE-----
MIIGJjCCBA6gAwIBAgICVLYwDQYJKoZIhvcNAQEFBQAwgZ8xCzAJBgNVBAYTAkRF
MQ8wDQYDVQQIDAZCZXJsaW4xEzARBgNVBAoMClphbGFuZG8gQUcxJDAiBgNVBAsM
G1BsYXRmb3JtL1N5c3RlbSBFbmdpbmVlcmluZzEiMCAGA1UEAwwZWmFsYW5kbyBU
ZWNobm9sb2d5IHJvb3RDQTEgMB4GCSqGSIb3DQEJARYRZG9tYWluQHphbGFuZG8u
ZGUwHhcNMTQwNTIzMTQzOTEwWhcNMjQwNTIwMTQzOTEwWjCBojELMAkGA1UEBhMC
REUxDzANBgNVBAgMBkJlcmxpbjETMBEGA1UECgwKWmFsYW5kbyBBRzEkMCIGA1UE
CwwbUGxhdGZvcm0vU3lzdGVtIEVuZ2luZWVyaW5nMSUwIwYDVQQDDBxaYWxhbmRv
IFRlY2hub2xvZ3kgc2VydmljZUNBMSAwHgYJKoZIhvcNAQkBFhFkb21haW5AemFs
YW5kby5kZTCCAiIwDQYJKoZIhvcNAQEBBQADggIPADCCAgoCggIBALQ597DQQj0A
VuItuN4KKWTMsRR4NBGLnm3H58SYYC+gcOa3LZ9kI2BlZdgoGhamFab00bcWK2Jg
09MPNyFtTtk3FIcZb0bE7fggBvtuPMHvSyzx78L5bBNZk61N4y0SH1yce+N7UpaB
Fj7CNiXSFIVuBxI8PwCwuQmYouEw+1NGsa2f3z7W1V+lnLx7gLRtF+AmKbQ6Rop3
RxkSmEwpoO6LLrI3/oiTajt1/5j5gCdCbJjaKH7PHPtz4dnE5ji/A7rz+v/QLG5b
oxqEwmefxPPFZYdVPgZD0HdhihEoihgs8Nui5mdUEwe7mnmEpBWJW3wUcZd+ur8Y
vU1gj8I9G0iAmccgieprpaxzpikkMGPepweTC5PWuZ0VjcYC4D9HYSHR1ylaf3kN
LNMjSvBLTg15tu1ft/S+G336EPSIvGP/+TLspneXGPkvB3PTtp/mOFaOBRSsDHac
0t3L1PiQUxAjs6FgLEf4oYJu81ZqnTU+ulW0KYD9MAkhNOIqzpI7e+pv/dyKYOnq
S2yo6W/ufjw33XE0gRNj6i5sOAsn6cgD0kLDhMAZ5+2qLeMgCb5E87mSnEgVfjwX
hVOYJDpnPYbqlEngr3yVyKbPhGMk2TsSJKaMXaOJW4OVftyvvE4paPRH0S11rfi7
BUUecoJzxBywzZ89NWi5QCYNmt665LClAgMBAAGjZzBlMB0GA1UdDgQWBBSMJ74M
x0u2dIzvwn2AB622zMmFQDAfBgNVHSMEGDAWgBSBmzxcDELKMxDR7td9k+43Up5p
0jASBgNVHRMBAf8ECDAGAQH/AgEAMA8GCWCGSAGG+EIBDQQCFgAwDQYJKoZIhvcN
AQEFBQADggIBAJF/wwxq8xlA1pyzbci09xetv17EfAQzd7Hpb9Ga1cUgMJ9bjqcK
AEJm2yLTG16URj2i4KPw+R3hczDvjHkJ35UYDROzKXdlzWF/DhMSFfT5TpYRyPEu
6a9ar6I+z9vFoDDSqUtOBb5/EWSRIlZd1e2cb4/9zCiyWvkzk3EyVJUAQP96anBR
YgH+Wr9JmfgZjkdsAgqr2/NM1YXDuntSk3D7imGAzJ+ir/TRKvoyHVf12iv3MxFO
ZueqMNueLUROupmioJzO34MwgGfsGvKT9tpX5euy9cezdNpYLg12pp4udKnYr0Sz
PR3N4LHNiP9vSBKIL+lefbocTOHGZvhPp8qnHRX1PjbIO9bEvYev/8ZeJqn0ztai
2WAshOteNeFT7zIuwRbeuM7S8ibdbBYqRd5oNbsMrUh6UedfYOZxCPRJxonoXWRb
1355WMFWEzllgOQ/3u7C8gTmJmz1VUqdzy51pkVrmnNhz4VG54WM65lduSJ64Bbp
5u6+F1gPNJeDSB3+BUcvoyYs7bzFBnnR0wRXAtyy5yUbWpm3P2cZv0mtz1H/CPFr
KXg5YOfcnM+rUK07DCMgmW2BR7X6K2DiwCBJkk/oaYamBweWdxIq/31F+cberRLy
GtI70zhnNzQE6TxFJ5pFf6S167Hz5frFSR36BUp7wrpVbjedFIt2CMTF
-----END CERTIFICATE-----
