Certificate:
    Data:
        Version: 3 (0x2)
        Serial Number: 21684 (0x54b4)
    Signature Algorithm: sha1WithRSAEncryption
        Issuer: C=DE, ST=Berlin, O=Zalando AG, OU=Platform/System Engineering, CN=Zalando Technology rootCA/emailAddress=domain@zalando.de
        Validity
            Not Before: May 23 14:39:06 2014 GMT
            Not After : May 20 14:39:06 2024 GMT
        Subject: C=DE, ST=Berlin, O=Zalando AG, OU=Platform/System Engineering, CN=Zalando Technology rootCA/emailAddress=domain@zalando.de
        Subject Public Key Info:
            Public Key Algorithm: rsaEncryption
                Public-Key: (4096 bit)
                Modulus:
                    00:ac:95:8e:05:68:af:d1:5c:8a:33:5a:31:58:01:
                    ea:b5:ee:0d:67:27:51:06:b3:3a:61:1b:9e:de:e3:
                    1f:02:6b:b2:eb:83:97:fb:10:e5:16:45:cf:54:c5:
                    7e:50:9f:dc:db:ef:e7:a2:dd:a4:b5:15:5c:4c:ce:
                    b6:00:31:3c:4f:ce:9c:ce:e6:a6:37:ab:01:eb:d9:
                    07:0b:4f:2a:3c:97:0d:ab:2d:94:b8:ac:aa:d1:7c:
                    37:97:52:65:e9:03:34:86:a1:20:2e:ea:ab:6c:e5:
                    d8:d3:12:ed:03:2d:74:a0:c5:e6:50:2b:75:ce:00:
                    7e:f3:a8:b0:4d:01:76:a2:67:b0:d2:99:0a:6b:25:
                    84:17:42:43:4e:dc:95:47:8f:55:e9:43:c0:d4:1f:
                    32:17:e9:df:26:3f:65:98:e9:f2:14:fc:11:12:d7:
                    00:38:e4:1f:32:2e:0c:ae:a9:bc:59:8a:68:66:39:
                    be:c7:8b:71:f6:1f:18:8e:a8:18:21:bf:5b:68:b3:
                    c3:c9:0f:71:6e:f3:ee:03:ac:ee:bb:c3:77:69:ca:
                    f4:e1:fe:91:d3:88:44:ec:6f:03:f6:01:63:bc:d1:
                    61:2e:97:de:6e:14:98:6b:c1:25:b2:23:a9:2c:c8:
                    3a:cb:d7:69:9a:bb:de:9a:d0:6b:3c:7c:60:81:68:
                    8b:c9:fe:fe:de:06:df:0d:cc:95:4b:d8:0e:12:1f:
                    ba:ca:77:48:6a:9c:9b:72:49:b1:7c:b2:7e:f2:1d:
                    7a:3c:43:aa:bb:07:c1:68:c3:7d:b8:fd:e3:e2:04:
                    43:f7:60:ab:33:b8:4e:32:e9:b7:fa:77:6c:dc:b9:
                    8f:64:12:90:c1:15:9f:00:31:ac:a0:e4:52:6f:b5:
                    5c:48:ce:34:19:36:74:b7:c7:56:ae:bf:84:48:6c:
                    67:62:61:59:d3:d3:0e:52:fa:de:31:b3:46:47:42:
                    6d:c8:9d:1b:d7:88:10:93:83:48:be:60:73:fe:84:
                    dd:e0:7e:0f:5a:e4:a1:45:08:74:f1:3d:9f:1c:6f:
                    64:7c:ed:f5:8a:e2:fb:df:72:69:d3:d8:e2:bf:6d:
                    2f:72:a2:5b:ec:7f:9c:8e:69:23:54:73:da:bd:f6:
                    77:4d:84:f4:53:0b:1b:c7:4b:fe:a1:47:4d:d4:77:
                    48:c2:77:15:a3:b6:35:54:76:51:f8:07:3f:56:2d:
                    59:7b:51:97:d4:e6:7f:7e:08:25:86:06:42:32:56:
                    ff:ea:63:c6:bb:8a:8c:06:aa:8d:83:56:11:c9:e6:
                    87:e2:16:b3:bc:42:e8:a0:e2:53:44:85:72:05:90:
                    db:51:88:ed:d5:59:6b:38:52:a5:92:85:2b:9a:f9:
                    04:cd:93
                Exponent: 65537 (0x10001)
        X509v3 extensions:
            X509v3 Subject Key Identifier: 
                81:9B:3C:5C:0C:42:CA:33:10:D1:EE:D7:7D:93:EE:37:52:9E:69:D2
            X509v3 Authority Key Identifier: 
                keyid:81:9B:3C:5C:0C:42:CA:33:10:D1:EE:D7:7D:93:EE:37:52:9E:69:D2

            X509v3 Basic Constraints: critical
                CA:TRUE, pathlen:1
            Netscape Comment: 
                ..
    Signature Algorithm: sha1WithRSAEncryption
         6b:9f:9f:19:df:02:89:67:47:1b:4a:67:cb:26:97:ea:4b:10:
         42:7e:8a:90:7d:6c:b1:1c:54:d1:44:8b:23:4c:57:82:fe:44:
         7a:58:63:28:bd:a4:73:51:47:c3:21:c8:7a:52:04:f3:86:41:
         4d:24:cb:d7:6e:9b:16:2c:a3:a5:f3:59:2c:01:dd:11:eb:ca:
         df:dc:dc:bc:74:3e:e3:68:48:68:a3:21:22:7b:50:18:76:35:
         89:4d:e0:c9:b7:8a:66:ba:28:ab:5f:fd:9f:40:f4:ba:4b:ef:
         1b:c6:d4:f7:e1:6e:1b:d0:b7:19:1c:91:12:f4:c7:d4:c6:da:
         ff:e2:9f:ae:28:8e:d7:35:c7:8d:6e:a0:da:93:0f:3f:b3:8e:
         76:e8:bc:b5:28:1c:96:02:97:14:63:e0:2d:b4:c3:f0:b5:96:
         35:67:bd:e3:71:08:4d:2b:28:fd:16:5f:68:6d:88:38:10:0d:
         5d:70:c0:98:f0:86:a6:f3:4d:dd:5c:14:ef:67:b6:7a:ba:b7:
         6b:77:e8:be:72:9b:dd:e2:66:bc:c0:76:4f:95:cf:50:9d:f6:
         f4:b1:60:d6:bb:bb:b8:79:22:06:fa:ae:23:a1:ba:50:28:28:
         9b:50:5a:c1:a4:0d:5c:b2:01:5e:2b:01:45:a9:30:8e:2d:9c:
         ca:dc:e4:dc:e9:0a:80:04:dc:90:11:77:78:ee:25:a1:c6:db:
         99:b7:43:fc:78:da:db:f2:59:c3:3c:4f:4d:7d:b2:ef:b0:99:
         bb:00:4c:48:48:c7:b8:d3:21:a1:12:76:26:45:e5:06:c1:b2:
         b6:b9:1c:77:27:b4:e8:22:6f:19:33:8a:db:a4:97:61:59:61:
         42:68:93:0b:11:08:c5:79:70:13:24:1d:c7:2a:9c:9d:43:05:
         de:45:1f:27:e3:d5:29:16:a5:81:eb:62:a5:51:67:74:e4:67:
         4d:6a:4f:ef:9c:08:c2:cf:f2:a9:49:3c:b9:f2:a3:6f:7e:47:
         10:98:65:ff:b0:eb:78:b6:2f:c4:b9:6f:14:13:0b:e5:8f:f6:
         c8:32:da:d7:9b:2c:88:3a:3e:fc:d4:32:cd:66:99:df:a0:a4:
         f7:de:71:c5:b8:a8:ff:b3:a4:d1:f3:19:49:59:83:7a:44:62:
         c8:88:b0:f3:d5:bc:73:63:c3:8f:09:22:75:2c:4e:7e:d9:73:
         cc:8a:2a:ad:a3:79:37:b7:d6:42:bc:d1:0f:23:a6:61:22:b6:
         e1:1d:3e:08:32:4e:18:0b:e4:41:55:25:f8:48:d6:42:9a:b2:
         50:a6:dd:93:98:22:6c:e1:00:a3:de:94:55:53:eb:73:6a:24:
         8f:17:8d:87:9f:64:b8:5c
-----BEGIN CERTIFICATE-----
MIIGIzCCBAugAwIBAgICVLQwDQYJKoZIhvcNAQEFBQAwgZ8xCzAJBgNVBAYTAkRF
MQ8wDQYDVQQIDAZCZXJsaW4xEzARBgNVBAoMClphbGFuZG8gQUcxJDAiBgNVBAsM
G1BsYXRmb3JtL1N5c3RlbSBFbmdpbmVlcmluZzEiMCAGA1UEAwwZWmFsYW5kbyBU
ZWNobm9sb2d5IHJvb3RDQTEgMB4GCSqGSIb3DQEJARYRZG9tYWluQHphbGFuZG8u
ZGUwHhcNMTQwNTIzMTQzOTA2WhcNMjQwNTIwMTQzOTA2WjCBnzELMAkGA1UEBhMC
REUxDzANBgNVBAgMBkJlcmxpbjETMBEGA1UECgwKWmFsYW5kbyBBRzEkMCIGA1UE
CwwbUGxhdGZvcm0vU3lzdGVtIEVuZ2luZWVyaW5nMSIwIAYDVQQDDBlaYWxhbmRv
IFRlY2hub2xvZ3kgcm9vdENBMSAwHgYJKoZIhvcNAQkBFhFkb21haW5AemFsYW5k
by5kZTCCAiIwDQYJKoZIhvcNAQEBBQADggIPADCCAgoCggIBAKyVjgVor9FcijNa
MVgB6rXuDWcnUQazOmEbnt7jHwJrsuuDl/sQ5RZFz1TFflCf3Nvv56LdpLUVXEzO
tgAxPE/OnM7mpjerAevZBwtPKjyXDastlLisqtF8N5dSZekDNIahIC7qq2zl2NMS
7QMtdKDF5lArdc4AfvOosE0BdqJnsNKZCmslhBdCQ07clUePVelDwNQfMhfp3yY/
ZZjp8hT8ERLXADjkHzIuDK6pvFmKaGY5vseLcfYfGI6oGCG/W2izw8kPcW7z7gOs
7rvDd2nK9OH+kdOIROxvA/YBY7zRYS6X3m4UmGvBJbIjqSzIOsvXaZq73prQazx8
YIFoi8n+/t4G3w3MlUvYDhIfusp3SGqcm3JJsXyyfvIdejxDqrsHwWjDfbj94+IE
Q/dgqzO4TjLpt/p3bNy5j2QSkMEVnwAxrKDkUm+1XEjONBk2dLfHVq6/hEhsZ2Jh
WdPTDlL63jGzRkdCbcidG9eIEJODSL5gc/6E3eB+D1rkoUUIdPE9nxxvZHzt9Yri
+99yadPY4r9tL3KiW+x/nI5pI1Rz2r32d02E9FMLG8dL/qFHTdR3SMJ3FaO2NVR2
UfgHP1YtWXtRl9Tmf34IJYYGQjJW/+pjxruKjAaqjYNWEcnmh+IWs7xC6KDiU0SF
cgWQ21GI7dVZazhSpZKFK5r5BM2TAgMBAAGjZzBlMB0GA1UdDgQWBBSBmzxcDELK
MxDR7td9k+43Up5p0jAfBgNVHSMEGDAWgBSBmzxcDELKMxDR7td9k+43Up5p0jAS
BgNVHRMBAf8ECDAGAQH/AgEBMA8GCWCGSAGG+EIBDQQCFgAwDQYJKoZIhvcNAQEF
BQADggIBAGufnxnfAolnRxtKZ8sml+pLEEJ+ipB9bLEcVNFEiyNMV4L+RHpYYyi9
pHNRR8MhyHpSBPOGQU0ky9dumxYso6XzWSwB3RHryt/c3Lx0PuNoSGijISJ7UBh2
NYlN4Mm3ima6KKtf/Z9A9LpL7xvG1PfhbhvQtxkckRL0x9TG2v/in64ojtc1x41u
oNqTDz+zjnbovLUoHJYClxRj4C20w/C1ljVnveNxCE0rKP0WX2htiDgQDV1wwJjw
hqbzTd1cFO9ntnq6t2t36L5ym93iZrzAdk+Vz1Cd9vSxYNa7u7h5Igb6riOhulAo
KJtQWsGkDVyyAV4rAUWpMI4tnMrc5NzpCoAE3JARd3juJaHG25m3Q/x42tvyWcM8
T019su+wmbsATEhIx7jTIaESdiZF5QbBsra5HHcntOgibxkzitukl2FZYUJokwsR
CMV5cBMkHccqnJ1DBd5FHyfj1SkWpYHrYqVRZ3TkZ01qT++cCMLP8qlJPLnyo29+
RxCYZf+w63i2L8S5bxQTC+WP9sgy2tebLIg6PvzUMs1mmd+gpPfeccW4qP+zpNHz
GUlZg3pEYsiIsPPVvHNjw48JInUsTn7Zc8yKKq2jeTe31kK80Q8jpmEituEdPggy
ThgL5EFVJfhI1kKaslCm3ZOYImzhAKPelFVT63NqJI8XjYefZLhc
-----END CERTIFICATE-----
